; Function Attrs: mustprogress nounwind uwtable
define hidden void @_ZN10CodeBuffer12copy_code_toEP8CodeBlob(ptr noundef nonnull align 8 dereferenceable(448) %0, ptr noundef %1) local_unnamed_addr #0 align 2 {
  %3 = alloca %class.CodeBuffer, align 8
  %4 = getelementptr inbounds i8, ptr %3, i64 8
  %5 = getelementptr inbounds i8, ptr %3, i64 76
  store i32 0, ptr %5, align 4
  call void @llvm.memset.p0.i64(ptr noundef nonnull align 8 dereferenceable(66) %4, i8 0, i64 66, i1 false)
  %6 = getelementptr inbounds i8, ptr %3, i64 96
  %7 = getelementptr inbounds i8, ptr %3, i64 164
  store i32 0, ptr %7, align 4
  call void @llvm.memset.p0.i64(ptr noundef nonnull align 8 dereferenceable(66) %6, i8 0, i64 66, i1 false)
  %8 = getelementptr inbounds i8, ptr %3, i64 184
  %9 = getelementptr inbounds i8, ptr %3, i64 252
  store i32 0, ptr %9, align 4
  call void @llvm.memset.p0.i64(ptr noundef nonnull align 8 dereferenceable(66) %8, i8 0, i64 66, i1 false)
  %10 = getelementptr inbounds i8, ptr %3, i64 312
  call void @_ZN11OopRecorderC1EP5Arenab(ptr noundef nonnull align 8 dereferenceable(88) %10, ptr noundef null, i1 noundef zeroext false) #16
  %11 = getelementptr inbounds i8, ptr %1, i64 16
  %12 = load ptr, ptr %11, align 8
  store ptr %12, ptr %3, align 8
  %13 = getelementptr inbounds i8, ptr %3, i64 272
  %14 = getelementptr inbounds i8, ptr %3, i64 304
  %15 = getelementptr inbounds i8, ptr %3, i64 400
  %16 = getelementptr inbounds i8, ptr %3, i64 88
  call void @llvm.memset.p0.i64(ptr noundef nonnull align 8 dereferenceable(16) %13, i8 0, i64 16, i1 false)
  call void @llvm.memset.p0.i64(ptr noundef nonnull align 8 dereferenceable(41) %15, i8 0, i64 41, i1 false)
  store ptr %3, ptr %16, align 8
  %17 = getelementptr inbounds i8, ptr %3, i64 80
  store i8 0, ptr %17, align 8
  %18 = getelementptr inbounds i8, ptr %3, i64 176
  store ptr %3, ptr %18, align 8
  %19 = getelementptr inbounds i8, ptr %3, i64 168
  store i8 1, ptr %19, align 8
  %20 = getelementptr inbounds i8, ptr %3, i64 264
  store ptr %3, ptr %20, align 8
  %21 = getelementptr inbounds i8, ptr %3, i64 256
  store i8 2, ptr %21, align 8
  %22 = getelementptr inbounds i8, ptr %3, i64 444
  store i32 8, ptr %22, align 4
  %23 = getelementptr inbounds i8, ptr %1, i64 32
  %24 = load i32, ptr %23, align 8
  %25 = sext i32 %24 to i64
  %26 = getelementptr inbounds i8, ptr %1, i64 %25
  %27 = getelementptr inbounds i8, ptr %1, i64 40
  %28 = load i32, ptr %27, align 8
  %gepdiff.i.i = sub i32 %28, %24
  %29 = getelementptr inbounds i8, ptr %3, i64 288
  store ptr %26, ptr %29, align 8
  %30 = getelementptr inbounds i8, ptr %3, i64 296
  store i32 %gepdiff.i.i, ptr %30, align 8
  store ptr %26, ptr %6, align 8
  %31 = getelementptr inbounds i8, ptr %3, i64 104
  store ptr null, ptr %31, align 8
  %32 = getelementptr inbounds i8, ptr %3, i64 112
  store ptr %26, ptr %32, align 8
  %33 = sext i32 %gepdiff.i.i to i64
  %34 = getelementptr inbounds i8, ptr %26, i64 %33
  %35 = getelementptr inbounds i8, ptr %3, i64 120
  store ptr %34, ptr %35, align 8
  %36 = getelementptr inbounds i8, ptr %3, i64 152
  store ptr %26, ptr %36, align 8
  store ptr %10, ptr %14, align 8
  call void @_ZNK10CodeBuffer20compute_final_layoutEPS_(ptr noundef nonnull align 8 dereferenceable(448) %0, ptr noundef nonnull %3)
  call void @_ZNK10CodeBuffer16relocate_code_toEPS_(ptr noundef nonnull align 8 dereferenceable(448) %0, ptr noundef nonnull %3)
  %37 = getelementptr inbounds i8, ptr %1, i64 36
  %38 = load i32, ptr %37, align 4
  %39 = sext i32 %38 to i64
  %40 = getelementptr inbounds i8, ptr %1, i64 %39
  %41 = load i32, ptr %27, align 8
  %gepdiff.i = sub i32 %41, %38
  call void @_ZN14AbstractICache16invalidate_rangeEPhi(ptr noundef %40, i32 noundef %gepdiff.i) #16
  call void @_ZN10CodeBufferD2Ev(ptr noundef nonnull align 8 dereferenceable(448) %3) #16
  ret void
}